; Function Attrs: mustprogress uwtable
define hidden void @_ZN5ceres8internal19ThreadTokenProvider7ReleaseEi(ptr noundef nonnull align 8 dereferenceable(176) %0, i32 noundef %1) local_unnamed_addr #0 align 2 personality ptr @__gxx_personality_v0 {
  %3 = alloca i32, align 4
  store i32 %1, ptr %3, align 4, !tbaa !22
  %4 = tail call noundef i32 @pthread_mutex_lock(ptr noundef nonnull align 8 dereferenceable(169) %0) #15
  %.not.i.i.i = icmp eq i32 %4, 0
  br i1 %.not.i.i.i, label %_ZNSt10lock_guardISt5mutexEC2ERS0_.exit.i, label %5

5:                                                ; preds = %2
  tail call void @_ZSt20__throw_system_errori(i32 noundef %4) #16
  unreachable

_ZNSt10lock_guardISt5mutexEC2ERS0_.exit.i:        ; preds = %2
  %6 = getelementptr inbounds nuw i8, ptr %0, i64 136
  %7 = load ptr, ptr %6, align 8, !tbaa !24
  %8 = getelementptr inbounds nuw i8, ptr %0, i64 152
  %9 = load ptr, ptr %8, align 8, !tbaa !25
  %10 = getelementptr inbounds i8, ptr %9, i64 -4
  %.not.i.i3.i = icmp eq ptr %7, %10
  br i1 %.not.i.i3.i, label %13, label %11

11:                                               ; preds = %_ZNSt10lock_guardISt5mutexEC2ERS0_.exit.i
  store i32 %1, ptr %7, align 4, !tbaa !22
  %12 = getelementptr inbounds nuw i8, ptr %7, i64 4
  store ptr %12, ptr %6, align 8, !tbaa !24
  br label %_ZN5ceres8internal15ConcurrentQueueIiE4PushERKi.exit

13:                                               ; preds = %_ZNSt10lock_guardISt5mutexEC2ERS0_.exit.i
  %14 = getelementptr inbounds nuw i8, ptr %0, i64 88
  invoke void @_ZNSt5dequeIiSaIiEE16_M_push_back_auxIJRKiEEEvDpOT_(ptr noundef nonnull align 8 dereferenceable(80) %14, ptr noundef nonnull align 4 dereferenceable(4) %3)
          to label %_ZN5ceres8internal15ConcurrentQueueIiE4PushERKi.exit unwind label %15

15:                                               ; preds = %13
  %16 = landingpad { ptr, i32 }
          cleanup
  %17 = call noundef i32 @pthread_mutex_unlock(ptr noundef nonnull align 8 dereferenceable(169) %0) #15
  resume { ptr, i32 } %16

_ZN5ceres8internal15ConcurrentQueueIiE4PushERKi.exit: ; preds = %11, %13
  %18 = getelementptr inbounds nuw i8, ptr %0, i64 40
  call void @_ZNSt18condition_variable10notify_oneEv(ptr noundef nonnull align 8 dereferenceable(48) %18) #15
  %19 = call noundef i32 @pthread_mutex_unlock(ptr noundef nonnull align 8 dereferenceable(169) %0) #15
  ret void
}